target datalayout = "e-m:e-p270:32:32-p271:32:32-p272:64:64-i64:64-i128:128-f80:128-n8:16:32:64-S128"
target triple = "x86_64-pc-linux-gnu"

%struct.nameData = type { [64 x i8] }
%struct.FormData_pg_class = type { i32, %struct.nameData, i32, i32, i32, i32, i32, i32, i32, i32, float, i32, i32, i8, i8, i8, i8, i16, i16, i8, i8, i8, i8, i8, i8, i8, i8, i32, i32, i32 }
%struct.HeapTupleData = type { i32, %struct.ItemPointerData, i32, ptr }
%struct.ItemPointerData = type { %struct.BlockIdData, i16 }
%struct.BlockIdData = type { i16, i16 }
%struct.HeapTupleHeaderData = type { %union.anon, %struct.ItemPointerData, i16, i16, i8, [0 x i8] }
%union.anon = type { %struct.HeapTupleFields }
%struct.HeapTupleFields = type { i32, i32, %union.anon.0 }
%union.anon.0 = type { i32 }

@.str.1 = private unnamed_addr constant [15 x i8] c"parse_coerce.c\00", align 1
@.str.51 = private unnamed_addr constant [36 x i8] c"cache lookup failed for relation %u\00", align 1
@__func__.typeIsOfTypedTable = private unnamed_addr constant [19 x i8] c"typeIsOfTypedTable\00", align 1

; Function Attrs: inlinehint nounwind uwtable
define internal ptr @GETSTRUCT(ptr noundef %0) #3 {
  %2 = alloca ptr, align 8
  store ptr %0, ptr %2, align 8
  %3 = load ptr, ptr %2, align 8
  %4 = getelementptr inbounds nuw %struct.HeapTupleData, ptr %3, i32 0, i32 3
  %5 = load ptr, ptr %4, align 8
  %6 = load ptr, ptr %2, align 8
  %7 = getelementptr inbounds nuw %struct.HeapTupleData, ptr %6, i32 0, i32 3
  %8 = load ptr, ptr %7, align 8
  %9 = getelementptr inbounds nuw %struct.HeapTupleHeaderData, ptr %8, i32 0, i32 4
  %10 = load i8, ptr %9, align 2
  %11 = zext i8 %10 to i32
  %12 = sext i32 %11 to i64
  %13 = getelementptr inbounds i8, ptr %5, i64 %12
  ret ptr %13
}

; Function Attrs: inlinehint nounwind uwtable
define internal i64 @ObjectIdGetDatum(i32 noundef %0) #3 {
  %2 = alloca i32, align 4
  store i32 %0, ptr %2, align 4
  %3 = load i32, ptr %2, align 4
  %4 = zext i32 %3 to i64
  ret i64 %4
}

; Function Attrs: nounwind uwtable
define internal zeroext i1 @typeIsOfTypedTable(i32 noundef %0, i32 noundef %1) #0 {
  %3 = alloca i32, align 4
  %4 = alloca i32, align 4
  %5 = alloca i32, align 4
  %6 = alloca i8, align 1
  %7 = alloca ptr, align 8
  %8 = alloca ptr, align 8
  store i32 %0, ptr %3, align 4
  store i32 %1, ptr %4, align 4
  call void @llvm.lifetime.start.p0(i64 4, ptr %5) #6
  %9 = load i32, ptr %3, align 4
  %10 = call i32 @typeOrDomainTypeRelid(i32 noundef %9)
  store i32 %10, ptr %5, align 4
  call void @llvm.lifetime.start.p0(i64 1, ptr %6) #6
  store i8 0, ptr %6, align 1
  %11 = load i32, ptr %5, align 4
  %12 = icmp ne i32 %11, 0
  br i1 %12, label %13, label %42

13:                                               ; preds = %2
  call void @llvm.lifetime.start.p0(i64 8, ptr %7) #6
  call void @llvm.lifetime.start.p0(i64 8, ptr %8) #6
  %14 = load i32, ptr %5, align 4
  %15 = call i64 @ObjectIdGetDatum(i32 noundef %14)
  %16 = call ptr @SearchSysCache1(i32 noundef 57, i64 noundef %15)
  store ptr %16, ptr %7, align 8
  %17 = load ptr, ptr %7, align 8
  %18 = icmp ne ptr %17, null
  br i1 %18, label %31, label %19

19:                                               ; preds = %13
  br label %20

20:                                               ; preds = %19
  br i1 true, label %21, label %23

21:                                               ; preds = %20
  %22 = call zeroext i1 @errstart_cold(i32 noundef 21, ptr noundef null) #7
  br i1 %22, label %25, label %28

23:                                               ; preds = %20
  %24 = call zeroext i1 @errstart(i32 noundef 21, ptr noundef null)
  br i1 %24, label %25, label %28

25:                                               ; preds = %23, %21
  %26 = load i32, ptr %5, align 4
  %27 = call i32 (ptr, ...) @errmsg_internal(ptr noundef @.str.51, i32 noundef %26)
  call void @errfinish(ptr noundef @.str.1, i32 noundef 3392, ptr noundef @__func__.typeIsOfTypedTable)
  br label %28

28:                                               ; preds = %25, %23, %21
  unreachable

29:                                               ; No predecessors!
  br label %30

30:                                               ; preds = %29
  br label %31

31:                                               ; preds = %30, %13
  %32 = load ptr, ptr %7, align 8
  %33 = call ptr @GETSTRUCT(ptr noundef %32)
  store ptr %33, ptr %8, align 8
  %34 = load ptr, ptr %8, align 8
  %35 = getelementptr inbounds nuw %struct.FormData_pg_class, ptr %34, i32 0, i32 4
  %36 = load i32, ptr %35, align 4
  %37 = load i32, ptr %4, align 4
  %38 = icmp eq i32 %36, %37
  br i1 %38, label %39, label %40

39:                                               ; preds = %31
  store i8 1, ptr %6, align 1
  br label %40

40:                                               ; preds = %39, %31
  %41 = load ptr, ptr %7, align 8
  call void @ReleaseSysCache(ptr noundef %41)
  call void @llvm.lifetime.end.p0(i64 8, ptr %8) #6
  call void @llvm.lifetime.end.p0(i64 8, ptr %7) #6
  br label %42

42:                                               ; preds = %40, %2
  %43 = load i8, ptr %6, align 1, !range !7, !noundef !8
  %44 = trunc i8 %43 to i1
  call void @llvm.lifetime.end.p0(i64 1, ptr %6) #6
  call void @llvm.lifetime.end.p0(i64 4, ptr %5) #6
  ret i1 %44
}

; Function Attrs: nounwind uwtable
define internal zeroext i1 @is_complex_array(i32 noundef %0) #0 {
  %2 = alloca i32, align 4
  %3 = alloca i32, align 4
  store i32 %0, ptr %2, align 4
  call void @llvm.lifetime.start.p0(i64 4, ptr %3) #6
  %4 = load i32, ptr %2, align 4
  %5 = call i32 @get_element_type(i32 noundef %4)
  store i32 %5, ptr %3, align 4
  %6 = load i32, ptr %3, align 4
  %7 = icmp ne i32 %6, 0
  br i1 %7, label %8, label %12

8:                                                ; preds = %1
  %9 = load i32, ptr %3, align 4
  %10 = call i32 @typeOrDomainTypeRelid(i32 noundef %9)
  %11 = icmp ne i32 %10, 0
  br label %12

12:                                               ; preds = %8, %1
  %13 = phi i1 [ false, %1 ], [ %11, %8 ]
  call void @llvm.lifetime.end.p0(i64 4, ptr %3) #6
  ret i1 %13
}

; Function Attrs: nounwind uwtable
define dso_local zeroext i1 @can_coerce_type(i32 noundef %0, ptr noundef %1, ptr noundef %2, i32 noundef %3) #0 {
  %5 = alloca i1, align 1
  %6 = alloca i32, align 4
  %7 = alloca ptr, align 8
  %8 = alloca ptr, align 8
  %9 = alloca i32, align 4
  %10 = alloca i8, align 1
  %11 = alloca i32, align 4
  %12 = alloca i32, align 4
  %13 = alloca i32, align 4
  %14 = alloca i32, align 4
  %15 = alloca i32, align 4
  %16 = alloca i32, align 4
  store i32 %0, ptr %6, align 4
  store ptr %1, ptr %7, align 8
  store ptr %2, ptr %8, align 8
  store i32 %3, ptr %9, align 4
  call void @llvm.lifetime.start.p0(i64 1, ptr %10) #6
  store i8 0, ptr %10, align 1
  call void @llvm.lifetime.start.p0(i64 4, ptr %11) #6
  store i32 0, ptr %11, align 4
  br label %17

17:                                               ; preds = %121, %4
  %18 = load i32, ptr %11, align 4
  %19 = load i32, ptr %6, align 4
  %20 = icmp slt i32 %18, %19
  br i1 %20, label %21, label %124

21:                                               ; preds = %17
  call void @llvm.lifetime.start.p0(i64 4, ptr %12) #6
  %22 = load ptr, ptr %7, align 8
  %23 = load i32, ptr %11, align 4
  %24 = sext i32 %23 to i64
  %25 = getelementptr inbounds i32, ptr %22, i64 %24
  %26 = load i32, ptr %25, align 4
  store i32 %26, ptr %12, align 4
  call void @llvm.lifetime.start.p0(i64 4, ptr %13) #6
  %27 = load ptr, ptr %8, align 8
  %28 = load i32, ptr %11, align 4
  %29 = sext i32 %28 to i64
  %30 = getelementptr inbounds i32, ptr %27, i64 %29
  %31 = load i32, ptr %30, align 4
  store i32 %31, ptr %13, align 4
  call void @llvm.lifetime.start.p0(i64 4, ptr %14) #6
  call void @llvm.lifetime.start.p0(i64 4, ptr %15) #6
  %32 = load i32, ptr %12, align 4
  %33 = load i32, ptr %13, align 4
  %34 = icmp eq i32 %32, %33
  br i1 %34, label %35, label %36

35:                                               ; preds = %21
  store i32 4, ptr %16, align 4
  br label %119

36:                                               ; preds = %21
  %37 = load i32, ptr %13, align 4
  %38 = icmp eq i32 %37, 2276
  br i1 %38, label %39, label %40

39:                                               ; preds = %36
  store i32 4, ptr %16, align 4
  br label %119

40:                                               ; preds = %36
  %41 = load i32, ptr %13, align 4
  %42 = icmp eq i32 %41, 2283
  br i1 %42, label %73, label %43

43:                                               ; preds = %40
  %44 = load i32, ptr %13, align 4
  %45 = icmp eq i32 %44, 2277
  br i1 %45, label %73, label %46

46:                                               ; preds = %43
  %47 = load i32, ptr %13, align 4
  %48 = icmp eq i32 %47, 2776
  br i1 %48, label %73, label %49

49:                                               ; preds = %46
  %50 = load i32, ptr %13, align 4
  %51 = icmp eq i32 %50, 3500
  br i1 %51, label %73, label %52

52:                                               ; preds = %49
  %53 = load i32, ptr %13, align 4
  %54 = icmp eq i32 %53, 3831
  br i1 %54, label %73, label %55

55:                                               ; preds = %52
  %56 = load i32, ptr %13, align 4
  %57 = icmp eq i32 %56, 4537
  br i1 %57, label %73, label %58

58:                                               ; preds = %55
  %59 = load i32, ptr %13, align 4
  %60 = icmp eq i32 %59, 5077
  br i1 %60, label %73, label %61

61:                                               ; preds = %58
  %62 = load i32, ptr %13, align 4
  %63 = icmp eq i32 %62, 5078
  br i1 %63, label %73, label %64

64:                                               ; preds = %61
  %65 = load i32, ptr %13, align 4
  %66 = icmp eq i32 %65, 5079
  br i1 %66, label %73, label %67

67:                                               ; preds = %64
  %68 = load i32, ptr %13, align 4
  %69 = icmp eq i32 %68, 5080
  br i1 %69, label %73, label %70

70:                                               ; preds = %67
  %71 = load i32, ptr %13, align 4
  %72 = icmp eq i32 %71, 4538
  br i1 %72, label %73, label %74

73:                                               ; preds = %70, %67, %64, %61, %58, %55, %52, %49, %46, %43, %40
  store i8 1, ptr %10, align 1
  store i32 4, ptr %16, align 4
  br label %119

74:                                               ; preds = %70
  %75 = load i32, ptr %12, align 4
  %76 = icmp eq i32 %75, 705
  br i1 %76, label %77, label %78

77:                                               ; preds = %74
  store i32 4, ptr %16, align 4
  br label %119

78:                                               ; preds = %74
  %79 = load i32, ptr %13, align 4
  %80 = load i32, ptr %12, align 4
  %81 = load i32, ptr %9, align 4
  %82 = call i32 @find_coercion_pathway(i32 noundef %79, i32 noundef %80, i32 noundef %81, ptr noundef %15)
  store i32 %82, ptr %14, align 4
  %83 = load i32, ptr %14, align 4
  %84 = icmp ne i32 %83, 0
  br i1 %84, label %85, label %86

85:                                               ; preds = %78
  store i32 4, ptr %16, align 4
  br label %119

86:                                               ; preds = %78
  %87 = load i32, ptr %12, align 4
  %88 = icmp eq i32 %87, 2249
  br i1 %88, label %89, label %94

89:                                               ; preds = %86
  %90 = load i32, ptr %13, align 4
  %91 = call i32 @typeOrDomainTypeRelid(i32 noundef %90)
  %92 = icmp ne i32 %91, 0
  br i1 %92, label %93, label %94

93:                                               ; preds = %89
  store i32 4, ptr %16, align 4
  br label %119

94:                                               ; preds = %89, %86
  %95 = load i32, ptr %13, align 4
  %96 = icmp eq i32 %95, 2249
  br i1 %96, label %97, label %102

97:                                               ; preds = %94
  %98 = load i32, ptr %12, align 4
  %99 = call i32 @typeOrDomainTypeRelid(i32 noundef %98)
  %100 = icmp ne i32 %99, 0
  br i1 %100, label %101, label %102

101:                                              ; preds = %97
  store i32 4, ptr %16, align 4
  br label %119

102:                                              ; preds = %97, %94
  %103 = load i32, ptr %13, align 4
  %104 = icmp eq i32 %103, 2287
  br i1 %104, label %105, label %109

105:                                              ; preds = %102
  %106 = load i32, ptr %12, align 4
  %107 = call zeroext i1 @is_complex_array(i32 noundef %106)
  br i1 %107, label %108, label %109

108:                                              ; preds = %105
  store i32 4, ptr %16, align 4
  br label %119

109:                                              ; preds = %105, %102
  %110 = load i32, ptr %12, align 4
  %111 = load i32, ptr %13, align 4
  %112 = call zeroext i1 @typeInheritsFrom(i32 noundef %110, i32 noundef %111)
  br i1 %112, label %117, label %113

113:                                              ; preds = %109
  %114 = load i32, ptr %12, align 4
  %115 = load i32, ptr %13, align 4
  %116 = call zeroext i1 @typeIsOfTypedTable(i32 noundef %114, i32 noundef %115)
  br i1 %116, label %117, label %118

117:                                              ; preds = %113, %109
  store i32 4, ptr %16, align 4
  br label %119

118:                                              ; preds = %113
  store i1 false, ptr %5, align 1
  store i32 1, ptr %16, align 4
  br label %119

119:                                              ; preds = %118, %117, %108, %101, %93, %85, %77, %73, %39, %35
  call void @llvm.lifetime.end.p0(i64 4, ptr %15) #6
  call void @llvm.lifetime.end.p0(i64 4, ptr %14) #6
  call void @llvm.lifetime.end.p0(i64 4, ptr %13) #6
  call void @llvm.lifetime.end.p0(i64 4, ptr %12) #6
  %120 = load i32, ptr %16, align 4
  switch i32 %120, label %135 [
    i32 4, label %121
  ]

121:                                              ; preds = %119
  %122 = load i32, ptr %11, align 4
  %123 = add i32 %122, 1
  store i32 %123, ptr %11, align 4
  br label %17, !llvm.loop !6

124:                                              ; preds = %17
  %125 = load i8, ptr %10, align 1, !range !7, !noundef !8
  %126 = trunc i8 %125 to i1
  br i1 %126, label %127, label %134

127:                                              ; preds = %124
  %128 = load ptr, ptr %7, align 8
  %129 = load ptr, ptr %8, align 8
  %130 = load i32, ptr %6, align 4
  %131 = call zeroext i1 @check_generic_type_consistency(ptr noundef %128, ptr noundef %129, i32 noundef %130)
  br i1 %131, label %133, label %132

132:                                              ; preds = %127
  store i1 false, ptr %5, align 1
  store i32 1, ptr %16, align 4
  br label %135

133:                                              ; preds = %127
  br label %134

134:                                              ; preds = %133, %124
  store i1 true, ptr %5, align 1
  store i32 1, ptr %16, align 4
  br label %135

135:                                              ; preds = %134, %132, %119
  call void @llvm.lifetime.end.p0(i64 4, ptr %11) #6
  call void @llvm.lifetime.end.p0(i64 1, ptr %10) #6
  %136 = load i1, ptr %5, align 1
  ret i1 %136
}